target datalayout = "e-m:e-p270:32:32-p271:32:32-p272:64:64-i64:64-i128:128-f80:128-n8:16:32:64-S128"
target triple = "x86_64-pc-linux-gnu"

%class.anon = type { ptr }
%"class.std::function.1" = type { %"class.std::_Function_base", ptr }
%"class.std::_Function_base" = type { %"union.std::_Any_data", ptr }
%"union.std::_Any_data" = type { %"union.std::_Nocopy_types" }
%"union.std::_Nocopy_types" = type { { i64, i64 } }

; Function Attrs: mustprogress nounwind uwtable
define linkonce_odr dso_local noundef ptr @_ZNSt9_Any_data9_M_accessEv(ptr noundef nonnull align 8 dereferenceable(16) %0) #1 comdat align 2 {
  %2 = alloca ptr, align 8
  store ptr %0, ptr %2, align 8, !tbaa !31
  %3 = load ptr, ptr %2, align 8
  %4 = getelementptr inbounds [16 x i8], ptr %3, i64 0, i64 0
  ret ptr %4
}

; Function Attrs: mustprogress nounwind uwtable
define internal void @"_ZNSt14_Function_base13_Base_managerIZN3igl32infinite_cost_stopping_conditionERKSt8functionIFviRKN5Eigen6MatrixIdLin1ELin1ELi0ELin1ELin1EEERKNS4_IiLin1ELin1ELi0ELin1ELin1EEESA_RKNS4_IiLin1ELi1ELi0ELin1ELi1EEESA_SA_RdRNS4_IdLi1ELin1ELi1ELi1ELin1EEEEERS2_IFbS7_SA_SA_SD_SA_SA_RKSt14priority_queueISt5tupleIJdiiEESt6vectorISN_SaISN_EESt7greaterISN_EESD_S7_iiiiiEEE3$_0E9_M_createISZ_EEvRSt9_Any_dataOT_St17integral_constantIbLb1EE"(ptr noundef nonnull align 8 dereferenceable(16) %0, ptr noundef nonnull align 8 dereferenceable(8) %1) #1 align 2 {
  %3 = alloca ptr, align 8
  %4 = alloca ptr, align 8
  store ptr %0, ptr %3, align 8, !tbaa !31
  store ptr %1, ptr %4, align 8, !tbaa !19
  %5 = load ptr, ptr %3, align 8, !tbaa !31
  %6 = call noundef ptr @_ZNSt9_Any_data9_M_accessEv(ptr noundef nonnull align 8 dereferenceable(16) %5) #12
  %7 = load ptr, ptr %4, align 8, !tbaa !19
  call void @llvm.memcpy.p0.p0.i64(ptr align 8 %6, ptr align 8 %7, i64 8, i1 false), !tbaa.struct !47
  ret void
}

; Function Attrs: inlinehint mustprogress nounwind uwtable
define linkonce_odr dso_local void @_ZSt4swapIPFbRKSt9_Any_dataRKN5Eigen6MatrixIdLin1ELin1ELi0ELin1ELin1EEERKNS4_IiLin1ELin1ELi0ELin1ELin1EEESA_RKNS4_IiLin1ELi1ELi0ELin1ELi1EEESA_SA_RKSt14priority_queueISt5tupleIJdiiEESt6vectorISG_SaISG_EESt7greaterISG_EESD_S7_OiSP_SP_SP_SP_EENSt9enable_ifIXsr6__and_ISt6__not_ISt15__is_tuple_likeIT_EESt21is_move_constructibleISV_ESt18is_move_assignableISV_EEE5valueEvE4typeERSV_S14_(ptr noundef nonnull align 8 dereferenceable(8) %0, ptr noundef nonnull align 8 dereferenceable(8) %1) #8 comdat {
  %3 = alloca ptr, align 8
  %4 = alloca ptr, align 8
  %5 = alloca ptr, align 8
  store ptr %0, ptr %3, align 8, !tbaa !98
  store ptr %1, ptr %4, align 8, !tbaa !98
  call void @llvm.lifetime.start.p0(i64 8, ptr %5) #12
  %6 = load ptr, ptr %3, align 8, !tbaa !98
  %7 = load ptr, ptr %6, align 8, !tbaa !19
  store ptr %7, ptr %5, align 8, !tbaa !19
  %8 = load ptr, ptr %4, align 8, !tbaa !98
  %9 = load ptr, ptr %8, align 8, !tbaa !19
  %10 = load ptr, ptr %3, align 8, !tbaa !98
  store ptr %9, ptr %10, align 8, !tbaa !19
  %11 = load ptr, ptr %5, align 8, !tbaa !19
  %12 = load ptr, ptr %4, align 8, !tbaa !98
  store ptr %11, ptr %12, align 8, !tbaa !19
  call void @llvm.lifetime.end.p0(i64 8, ptr %5) #12
  ret void
}

; Function Attrs: inlinehint mustprogress nounwind uwtable
define linkonce_odr dso_local void @_ZSt4swapIPFbRSt9_Any_dataRKS0_St18_Manager_operationEENSt9enable_ifIXsr6__and_ISt6__not_ISt15__is_tuple_likeIT_EESt21is_move_constructibleISA_ESt18is_move_assignableISA_EEE5valueEvE4typeERSA_SJ_(ptr noundef nonnull align 8 dereferenceable(8) %0, ptr noundef nonnull align 8 dereferenceable(8) %1) #8 comdat {
  %3 = alloca ptr, align 8
  %4 = alloca ptr, align 8
  %5 = alloca ptr, align 8
  store ptr %0, ptr %3, align 8, !tbaa !98
  store ptr %1, ptr %4, align 8, !tbaa !98
  call void @llvm.lifetime.start.p0(i64 8, ptr %5) #12
  %6 = load ptr, ptr %3, align 8, !tbaa !98
  %7 = load ptr, ptr %6, align 8, !tbaa !19
  store ptr %7, ptr %5, align 8, !tbaa !19
  %8 = load ptr, ptr %4, align 8, !tbaa !98
  %9 = load ptr, ptr %8, align 8, !tbaa !19
  %10 = load ptr, ptr %3, align 8, !tbaa !98
  store ptr %9, ptr %10, align 8, !tbaa !19
  %11 = load ptr, ptr %5, align 8, !tbaa !19
  %12 = load ptr, ptr %4, align 8, !tbaa !98
  store ptr %11, ptr %12, align 8, !tbaa !19
  call void @llvm.lifetime.end.p0(i64 8, ptr %5) #12
  ret void
}

; Function Attrs: inlinehint mustprogress nounwind uwtable
define linkonce_odr dso_local void @_ZSt4swapISt9_Any_dataENSt9enable_ifIXsr6__and_ISt6__not_ISt15__is_tuple_likeIT_EESt21is_move_constructibleIS4_ESt18is_move_assignableIS4_EEE5valueEvE4typeERS4_SD_(ptr noundef nonnull align 8 dereferenceable(16) %0, ptr noundef nonnull align 8 dereferenceable(16) %1) #8 comdat {
  %3 = alloca ptr, align 8
  %4 = alloca ptr, align 8
  %5 = alloca %"union.std::_Any_data", align 8
  store ptr %0, ptr %3, align 8, !tbaa !31
  store ptr %1, ptr %4, align 8, !tbaa !31
  call void @llvm.lifetime.start.p0(i64 16, ptr %5) #12
  %6 = load ptr, ptr %3, align 8, !tbaa !31
  call void @llvm.memcpy.p0.p0.i64(ptr align 8 %5, ptr align 8 %6, i64 16, i1 false), !tbaa.struct !97
  %7 = load ptr, ptr %4, align 8, !tbaa !31
  %8 = load ptr, ptr %3, align 8, !tbaa !31
  call void @llvm.memcpy.p0.p0.i64(ptr align 8 %8, ptr align 8 %7, i64 16, i1 false), !tbaa.struct !97
  %9 = load ptr, ptr %4, align 8, !tbaa !31
  call void @llvm.memcpy.p0.p0.i64(ptr align 8 %9, ptr align 8 %5, i64 16, i1 false), !tbaa.struct !97
  call void @llvm.lifetime.end.p0(i64 16, ptr %5) #12
  ret void
}

; Function Attrs: mustprogress nounwind uwtable
define internal void @"_ZNSt14_Function_base13_Base_managerIZN3igl32infinite_cost_stopping_conditionERKSt8functionIFviRKN5Eigen6MatrixIdLin1ELin1ELi0ELin1ELin1EEERKNS4_IiLin1ELin1ELi0ELin1ELin1EEESA_RKNS4_IiLin1ELi1ELi0ELin1ELi1EEESA_SA_RdRNS4_IdLi1ELin1ELi1ELi1ELin1EEEEERS2_IFbS7_SA_SA_SD_SA_SA_RKSt14priority_queueISt5tupleIJdiiEESt6vectorISN_SaISN_EESt7greaterISN_EESD_S7_iiiiiEEE3$_0E15_M_init_functorISZ_EEvRSt9_Any_dataOT_"(ptr noundef nonnull align 8 dereferenceable(16) %0, ptr noundef nonnull align 8 dereferenceable(8) %1) #1 align 2 personality ptr @__gxx_personality_v0 {
  %3 = alloca ptr, align 8
  %4 = alloca ptr, align 8
  store ptr %0, ptr %3, align 8, !tbaa !31
  store ptr %1, ptr %4, align 8, !tbaa !19
  %5 = load ptr, ptr %3, align 8, !tbaa !31
  %6 = load ptr, ptr %4, align 8, !tbaa !19
  invoke void @"_ZNSt14_Function_base13_Base_managerIZN3igl32infinite_cost_stopping_conditionERKSt8functionIFviRKN5Eigen6MatrixIdLin1ELin1ELi0ELin1ELin1EEERKNS4_IiLin1ELin1ELi0ELin1ELin1EEESA_RKNS4_IiLin1ELi1ELi0ELin1ELi1EEESA_SA_RdRNS4_IdLi1ELin1ELi1ELi1ELin1EEEEERS2_IFbS7_SA_SA_SD_SA_SA_RKSt14priority_queueISt5tupleIJdiiEESt6vectorISN_SaISN_EESt7greaterISN_EESD_S7_iiiiiEEE3$_0E9_M_createISZ_EEvRSt9_Any_dataOT_St17integral_constantIbLb1EE"(ptr noundef nonnull align 8 dereferenceable(16) %5, ptr noundef nonnull align 8 dereferenceable(8) %6)
          to label %7 unwind label %8

7:                                                ; preds = %2
  ret void

8:                                                ; preds = %2
  %9 = landingpad { ptr, i32 }
          catch ptr null
  %10 = extractvalue { ptr, i32 } %9, 0
  call void @__clang_call_terminate(ptr %10) #13
  unreachable
}

; Function Attrs: mustprogress nounwind uwtable
define internal noundef zeroext i1 @"_ZNSt14_Function_base13_Base_managerIZN3igl32infinite_cost_stopping_conditionERKSt8functionIFviRKN5Eigen6MatrixIdLin1ELin1ELi0ELin1ELin1EEERKNS4_IiLin1ELin1ELi0ELin1ELin1EEESA_RKNS4_IiLin1ELi1ELi0ELin1ELi1EEESA_SA_RdRNS4_IdLi1ELin1ELi1ELi1ELin1EEEEERS2_IFbS7_SA_SA_SD_SA_SA_RKSt14priority_queueISt5tupleIJdiiEESt6vectorISN_SaISN_EESt7greaterISN_EESD_S7_iiiiiEEE3$_0E21_M_not_empty_functionISZ_EEbRKT_"(ptr noundef nonnull align 8 dereferenceable(8) %0) #1 align 2 {
  %2 = alloca ptr, align 8
  store ptr %0, ptr %2, align 8, !tbaa !19
  ret i1 true
}

; Function Attrs: mustprogress nounwind uwtable
define linkonce_odr dso_local void @_ZNSt8functionIFbRKN5Eigen6MatrixIdLin1ELin1ELi0ELin1ELin1EEERKNS1_IiLin1ELin1ELi0ELin1ELin1EEES7_RKNS1_IiLin1ELi1ELi0ELin1ELi1EEES7_S7_RKSt14priority_queueISt5tupleIJdiiEESt6vectorISD_SaISD_EESt7greaterISD_EESA_S4_iiiiiEE4swapERSN_(ptr noundef nonnull align 8 dereferenceable(32) %0, ptr noundef nonnull align 8 dereferenceable(32) %1) #1 comdat align 2 {
  %3 = alloca ptr, align 8
  %4 = alloca ptr, align 8
  store ptr %0, ptr %3, align 8, !tbaa !17
  store ptr %1, ptr %4, align 8, !tbaa !17
  %5 = load ptr, ptr %3, align 8
  %6 = getelementptr inbounds nuw %"class.std::_Function_base", ptr %5, i32 0, i32 0
  %7 = load ptr, ptr %4, align 8, !tbaa !17
  %8 = getelementptr inbounds nuw %"class.std::_Function_base", ptr %7, i32 0, i32 0
  call void @_ZSt4swapISt9_Any_dataENSt9enable_ifIXsr6__and_ISt6__not_ISt15__is_tuple_likeIT_EESt21is_move_constructibleIS4_ESt18is_move_assignableIS4_EEE5valueEvE4typeERS4_SD_(ptr noundef nonnull align 8 dereferenceable(16) %6, ptr noundef nonnull align 8 dereferenceable(16) %8) #12
  %9 = getelementptr inbounds nuw %"class.std::_Function_base", ptr %5, i32 0, i32 1
  %10 = load ptr, ptr %4, align 8, !tbaa !17
  %11 = getelementptr inbounds nuw %"class.std::_Function_base", ptr %10, i32 0, i32 1
  call void @_ZSt4swapIPFbRSt9_Any_dataRKS0_St18_Manager_operationEENSt9enable_ifIXsr6__and_ISt6__not_ISt15__is_tuple_likeIT_EESt21is_move_constructibleISA_ESt18is_move_assignableISA_EEE5valueEvE4typeERSA_SJ_(ptr noundef nonnull align 8 dereferenceable(8) %9, ptr noundef nonnull align 8 dereferenceable(8) %11) #12
  %12 = getelementptr inbounds nuw %"class.std::function.1", ptr %5, i32 0, i32 1
  %13 = load ptr, ptr %4, align 8, !tbaa !17
  %14 = getelementptr inbounds nuw %"class.std::function.1", ptr %13, i32 0, i32 1
  call void @_ZSt4swapIPFbRKSt9_Any_dataRKN5Eigen6MatrixIdLin1ELin1ELi0ELin1ELin1EEERKNS4_IiLin1ELin1ELi0ELin1ELin1EEESA_RKNS4_IiLin1ELi1ELi0ELin1ELi1EEESA_SA_RKSt14priority_queueISt5tupleIJdiiEESt6vectorISG_SaISG_EESt7greaterISG_EESD_S7_OiSP_SP_SP_SP_EENSt9enable_ifIXsr6__and_ISt6__not_ISt15__is_tuple_likeIT_EESt21is_move_constructibleISV_ESt18is_move_assignableISV_EEE5valueEvE4typeERSV_S14_(ptr noundef nonnull align 8 dereferenceable(8) %12, ptr noundef nonnull align 8 dereferenceable(8) %14) #12
  ret void
}

; Function Attrs: mustprogress nounwind uwtable
define internal void @"_ZNSt8functionIFbRKN5Eigen6MatrixIdLin1ELin1ELi0ELin1ELin1EEERKNS1_IiLin1ELin1ELi0ELin1ELin1EEES7_RKNS1_IiLin1ELi1ELi0ELin1ELi1EEES7_S7_RKSt14priority_queueISt5tupleIJdiiEESt6vectorISD_SaISD_EESt7greaterISD_EESA_S4_iiiiiEEC2IZN3igl32infinite_cost_stopping_conditionERKS_IFviS4_S7_S7_SA_S7_S7_RdRNS1_IdLi1ELin1ELi1ELi1ELin1EEEEERSN_E3$_0vEEOT_"(ptr noundef nonnull align 8 dereferenceable(32) %0, ptr noundef nonnull align 8 dereferenceable(8) %1) unnamed_addr #1 align 2 {
  %3 = alloca ptr, align 8
  %4 = alloca ptr, align 8
  store ptr %0, ptr %3, align 8, !tbaa !17
  store ptr %1, ptr %4, align 8, !tbaa !19
  %5 = load ptr, ptr %3, align 8
  %6 = getelementptr inbounds i8, ptr %5, i64 0
  call void @llvm.memset.p0.i64(ptr align 8 %6, i8 0, i64 24, i1 false)
  call void @_ZNSt14_Function_baseC2Ev(ptr noundef nonnull align 8 dereferenceable(24) %5) #12
  %7 = getelementptr inbounds nuw %"class.std::function.1", ptr %5, i32 0, i32 1
  store ptr null, ptr %7, align 8, !tbaa !20
  %8 = load ptr, ptr %4, align 8, !tbaa !19
  %9 = call noundef zeroext i1 @"_ZNSt14_Function_base13_Base_managerIZN3igl32infinite_cost_stopping_conditionERKSt8functionIFviRKN5Eigen6MatrixIdLin1ELin1ELi0ELin1ELin1EEERKNS4_IiLin1ELin1ELi0ELin1ELin1EEESA_RKNS4_IiLin1ELi1ELi0ELin1ELi1EEESA_SA_RdRNS4_IdLi1ELin1ELi1ELi1ELin1EEEEERS2_IFbS7_SA_SA_SD_SA_SA_RKSt14priority_queueISt5tupleIJdiiEESt6vectorISN_SaISN_EESt7greaterISN_EESD_S7_iiiiiEEE3$_0E21_M_not_empty_functionISZ_EEbRKT_"(ptr noundef nonnull align 8 dereferenceable(8) %8) #12
  br i1 %9, label %10, label %15

10:                                               ; preds = %2
  %11 = getelementptr inbounds nuw %"class.std::_Function_base", ptr %5, i32 0, i32 0
  %12 = load ptr, ptr %4, align 8, !tbaa !19
  call void @"_ZNSt14_Function_base13_Base_managerIZN3igl32infinite_cost_stopping_conditionERKSt8functionIFviRKN5Eigen6MatrixIdLin1ELin1ELi0ELin1ELin1EEERKNS4_IiLin1ELin1ELi0ELin1ELin1EEESA_RKNS4_IiLin1ELi1ELi0ELin1ELi1EEESA_SA_RdRNS4_IdLi1ELin1ELi1ELi1ELin1EEEEERS2_IFbS7_SA_SA_SD_SA_SA_RKSt14priority_queueISt5tupleIJdiiEESt6vectorISN_SaISN_EESt7greaterISN_EESD_S7_iiiiiEEE3$_0E15_M_init_functorISZ_EEvRSt9_Any_dataOT_"(ptr noundef nonnull align 8 dereferenceable(16) %11, ptr noundef nonnull align 8 dereferenceable(8) %12) #12
  %13 = getelementptr inbounds nuw %"class.std::function.1", ptr %5, i32 0, i32 1
  store ptr @"_ZNSt17_Function_handlerIFbRKN5Eigen6MatrixIdLin1ELin1ELi0ELin1ELin1EEERKNS1_IiLin1ELin1ELi0ELin1ELin1EEES7_RKNS1_IiLin1ELi1ELi0ELin1ELi1EEES7_S7_RKSt14priority_queueISt5tupleIJdiiEESt6vectorISD_SaISD_EESt7greaterISD_EESA_S4_iiiiiEZN3igl32infinite_cost_stopping_conditionERKSt8functionIFviS4_S7_S7_SA_S7_S7_RdRNS1_IdLi1ELin1ELi1ELi1ELin1EEEEERSO_ISM_EE3$_0E9_M_invokeERKSt9_Any_dataS4_S7_S7_SA_S7_S7_SL_SA_S4_OiS13_S13_S13_S13_", ptr %13, align 8, !tbaa !20
  %14 = getelementptr inbounds nuw %"class.std::_Function_base", ptr %5, i32 0, i32 1
  store ptr @"_ZNSt17_Function_handlerIFbRKN5Eigen6MatrixIdLin1ELin1ELi0ELin1ELin1EEERKNS1_IiLin1ELin1ELi0ELin1ELin1EEES7_RKNS1_IiLin1ELi1ELi0ELin1ELi1EEES7_S7_RKSt14priority_queueISt5tupleIJdiiEESt6vectorISD_SaISD_EESt7greaterISD_EESA_S4_iiiiiEZN3igl32infinite_cost_stopping_conditionERKSt8functionIFviS4_S7_S7_SA_S7_S7_RdRNS1_IdLi1ELin1ELi1ELi1ELin1EEEEERSO_ISM_EE3$_0E10_M_managerERSt9_Any_dataRKS10_St18_Manager_operation", ptr %14, align 8, !tbaa !25
  br label %15

15:                                               ; preds = %10, %2
  ret void
}

; Function Attrs: noinline noreturn nounwind uwtable
define linkonce_odr hidden void @__clang_call_terminate(ptr noundef %0) #4 comdat {
  %2 = call ptr @__cxa_begin_catch(ptr %0) #12
  call void @_ZSt9terminatev() #13
  unreachable
}

; Function Attrs: mustprogress nounwind uwtable
define internal noundef nonnull align 8 dereferenceable(32) ptr @"_ZNSt8functionIFbRKN5Eigen6MatrixIdLin1ELin1ELi0ELin1ELin1EEERKNS1_IiLin1ELin1ELi0ELin1ELin1EEES7_RKNS1_IiLin1ELi1ELi0ELin1ELi1EEES7_S7_RKSt14priority_queueISt5tupleIJdiiEESt6vectorISD_SaISD_EESt7greaterISD_EESA_S4_iiiiiEEaSIZN3igl32infinite_cost_stopping_conditionERKS_IFviS4_S7_S7_SA_S7_S7_RdRNS1_IdLi1ELin1ELi1ELi1ELin1EEEEERSN_E3$_0EENSt9enable_ifIXsr9_CallableIT_EE5valueESX_E4typeEOS10_"(ptr noundef nonnull align 8 dereferenceable(32) %0, ptr noundef nonnull align 8 dereferenceable(8) %1) #1 align 2 {
  %3 = alloca ptr, align 8
  %4 = alloca ptr, align 8
  %5 = alloca %"class.std::function.1", align 8
  store ptr %0, ptr %3, align 8, !tbaa !17
  store ptr %1, ptr %4, align 8, !tbaa !19
  %6 = load ptr, ptr %3, align 8
  call void @llvm.lifetime.start.p0(i64 32, ptr %5) #12
  %7 = load ptr, ptr %4, align 8, !tbaa !19
  call void @"_ZNSt8functionIFbRKN5Eigen6MatrixIdLin1ELin1ELi0ELin1ELin1EEERKNS1_IiLin1ELin1ELi0ELin1ELin1EEES7_RKNS1_IiLin1ELi1ELi0ELin1ELi1EEES7_S7_RKSt14priority_queueISt5tupleIJdiiEESt6vectorISD_SaISD_EESt7greaterISD_EESA_S4_iiiiiEEC2IZN3igl32infinite_cost_stopping_conditionERKS_IFviS4_S7_S7_SA_S7_S7_RdRNS1_IdLi1ELin1ELi1ELi1ELin1EEEEERSN_E3$_0vEEOT_"(ptr noundef nonnull align 8 dereferenceable(32) %5, ptr noundef nonnull align 8 dereferenceable(8) %7) #12
  call void @_ZNSt8functionIFbRKN5Eigen6MatrixIdLin1ELin1ELi0ELin1ELin1EEERKNS1_IiLin1ELin1ELi0ELin1ELin1EEES7_RKNS1_IiLin1ELi1ELi0ELin1ELi1EEES7_S7_RKSt14priority_queueISt5tupleIJdiiEESt6vectorISD_SaISD_EESt7greaterISD_EESA_S4_iiiiiEE4swapERSN_(ptr noundef nonnull align 8 dereferenceable(32) %5, ptr noundef nonnull align 8 dereferenceable(32) %6) #12
  call void @_ZNSt14_Function_baseD2Ev(ptr noundef nonnull align 8 dereferenceable(32) %5) #12
  call void @llvm.lifetime.end.p0(i64 32, ptr %5) #12
  ret ptr %6
}

; Function Attrs: mustprogress nounwind uwtable
define linkonce_odr dso_local void @_ZNSt14_Function_baseC2Ev(ptr noundef nonnull align 8 dereferenceable(24) %0) unnamed_addr #1 comdat align 2 {
  %2 = alloca ptr, align 8
  store ptr %0, ptr %2, align 8, !tbaa !23
  %3 = load ptr, ptr %2, align 8
  %4 = getelementptr inbounds nuw %"class.std::_Function_base", ptr %3, i32 0, i32 0
  store ptr null, ptr %4, align 8, !tbaa !30
  %5 = getelementptr inbounds nuw %"class.std::_Function_base", ptr %3, i32 0, i32 1
  store ptr null, ptr %5, align 8, !tbaa !25
  ret void
}

; Function Attrs: mustprogress nounwind uwtable
define linkonce_odr dso_local void @_ZNSt14_Function_baseD2Ev(ptr noundef nonnull align 8 dereferenceable(24) %0) unnamed_addr #1 comdat align 2 personality ptr @__gxx_personality_v0 {
  %2 = alloca ptr, align 8
  store ptr %0, ptr %2, align 8, !tbaa !23
  %3 = load ptr, ptr %2, align 8
  %4 = getelementptr inbounds nuw %"class.std::_Function_base", ptr %3, i32 0, i32 1
  %5 = load ptr, ptr %4, align 8, !tbaa !25
  %6 = icmp ne ptr %5, null
  br i1 %6, label %7, label %14

7:                                                ; preds = %1
  %8 = getelementptr inbounds nuw %"class.std::_Function_base", ptr %3, i32 0, i32 1
  %9 = load ptr, ptr %8, align 8, !tbaa !25
  %10 = getelementptr inbounds nuw %"class.std::_Function_base", ptr %3, i32 0, i32 0
  %11 = getelementptr inbounds nuw %"class.std::_Function_base", ptr %3, i32 0, i32 0
  %12 = invoke noundef zeroext i1 %9(ptr noundef nonnull align 8 dereferenceable(16) %10, ptr noundef nonnull align 8 dereferenceable(16) %11, i32 noundef 3)
          to label %13 unwind label %15

13:                                               ; preds = %7
  br label %14

14:                                               ; preds = %13, %1
  ret void

15:                                               ; preds = %7
  %16 = landingpad { ptr, i32 }
          catch ptr null
  %17 = extractvalue { ptr, i32 } %16, 0
  call void @__clang_call_terminate(ptr %17) #13
  unreachable
}

; Function Attrs: mustprogress nounwind uwtable
define dso_local void @_ZN3igl32infinite_cost_stopping_conditionERKSt8functionIFviRKN5Eigen6MatrixIdLin1ELin1ELi0ELin1ELin1EEERKNS2_IiLin1ELin1ELi0ELin1ELin1EEES8_RKNS2_IiLin1ELi1ELi0ELin1ELi1EEES8_S8_RdRNS2_IdLi1ELin1ELi1ELi1ELin1EEEEERS0_IFbS5_S8_S8_SB_S8_S8_RKSt14priority_queueISt5tupleIJdiiEESt6vectorISL_SaISL_EESt7greaterISL_EESB_S5_iiiiiEE(ptr noundef nonnull align 8 dereferenceable(32) %0, ptr noundef nonnull align 8 dereferenceable(32) %1) #1 {
  %3 = alloca ptr, align 8
  %4 = alloca ptr, align 8
  %5 = alloca %class.anon, align 8
  store ptr %0, ptr %3, align 8, !tbaa !15
  store ptr %1, ptr %4, align 8, !tbaa !17
  call void @llvm.lifetime.start.p0(i64 8, ptr %5) #12
  %6 = getelementptr inbounds nuw %class.anon, ptr %5, i32 0, i32 0
  %7 = load ptr, ptr %3, align 8, !tbaa !15
  store ptr %7, ptr %6, align 8, !tbaa !15
  %8 = load ptr, ptr %4, align 8, !tbaa !17
  %9 = call noundef nonnull align 8 dereferenceable(32) ptr @"_ZNSt8functionIFbRKN5Eigen6MatrixIdLin1ELin1ELi0ELin1ELin1EEERKNS1_IiLin1ELin1ELi0ELin1ELin1EEES7_RKNS1_IiLin1ELi1ELi0ELin1ELi1EEES7_S7_RKSt14priority_queueISt5tupleIJdiiEESt6vectorISD_SaISD_EESt7greaterISD_EESA_S4_iiiiiEEaSIZN3igl32infinite_cost_stopping_conditionERKS_IFviS4_S7_S7_SA_S7_S7_RdRNS1_IdLi1ELin1ELi1ELi1ELin1EEEEERSN_E3$_0EENSt9enable_ifIXsr9_CallableIT_EE5valueESX_E4typeEOS10_"(ptr noundef nonnull align 8 dereferenceable(32) %8, ptr noundef nonnull align 8 dereferenceable(8) %5) #12
  call void @llvm.lifetime.end.p0(i64 8, ptr %5) #12
  ret void
}

; Function Attrs: mustprogress nounwind uwtable
define linkonce_odr dso_local void @_ZNSt8functionIFbRKN5Eigen6MatrixIdLin1ELin1ELi0ELin1ELin1EEERKNS1_IiLin1ELin1ELi0ELin1ELin1EEES7_RKNS1_IiLin1ELi1ELi0ELin1ELi1EEES7_S7_RKSt14priority_queueISt5tupleIJdiiEESt6vectorISD_SaISD_EESt7greaterISD_EESA_S4_iiiiiEEC2Ev(ptr noundef nonnull align 8 dereferenceable(32) %0) unnamed_addr #1 comdat align 2 {
  %2 = alloca ptr, align 8
  store ptr %0, ptr %2, align 8, !tbaa !17
  %3 = load ptr, ptr %2, align 8
  %4 = getelementptr inbounds i8, ptr %3, i64 0
  call void @llvm.memset.p0.i64(ptr align 8 %4, i8 0, i64 24, i1 false)
  call void @_ZNSt14_Function_baseC2Ev(ptr noundef nonnull align 8 dereferenceable(24) %3) #12
  %5 = getelementptr inbounds nuw %"class.std::function.1", ptr %3, i32 0, i32 1
  store ptr null, ptr %5, align 8, !tbaa !20
  ret void
}

; Function Attrs: mustprogress nounwind uwtable
define dso_local void @_ZN3igl32infinite_cost_stopping_conditionERKSt8functionIFviRKN5Eigen6MatrixIdLin1ELin1ELi0ELin1ELin1EEERKNS2_IiLin1ELin1ELi0ELin1ELin1EEES8_RKNS2_IiLin1ELi1ELi0ELin1ELi1EEES8_S8_RdRNS2_IdLi1ELin1ELi1ELi1ELin1EEEEE(ptr dead_on_unwind noalias writable sret(%"class.std::function.1") align 8 %0, ptr noundef nonnull align 8 dereferenceable(32) %1) #1 {
  %3 = alloca ptr, align 8
  %4 = alloca ptr, align 8
  %5 = alloca i1, align 1
  store ptr %0, ptr %3, align 8
  store ptr %1, ptr %4, align 8, !tbaa !15
  store i1 false, ptr %5, align 1
  call void @_ZNSt8functionIFbRKN5Eigen6MatrixIdLin1ELin1ELi0ELin1ELin1EEERKNS1_IiLin1ELin1ELi0ELin1ELin1EEES7_RKNS1_IiLin1ELi1ELi0ELin1ELi1EEES7_S7_RKSt14priority_queueISt5tupleIJdiiEESt6vectorISD_SaISD_EESt7greaterISD_EESA_S4_iiiiiEEC2Ev(ptr noundef nonnull align 8 dereferenceable(32) %0) #12
  %6 = load ptr, ptr %4, align 8, !tbaa !15
  call void @_ZN3igl32infinite_cost_stopping_conditionERKSt8functionIFviRKN5Eigen6MatrixIdLin1ELin1ELi0ELin1ELin1EEERKNS2_IiLin1ELin1ELi0ELin1ELin1EEES8_RKNS2_IiLin1ELi1ELi0ELin1ELi1EEES8_S8_RdRNS2_IdLi1ELin1ELi1ELi1ELin1EEEEERS0_IFbS5_S8_S8_SB_S8_S8_RKSt14priority_queueISt5tupleIJdiiEESt6vectorISL_SaISL_EESt7greaterISL_EESB_S5_iiiiiEE(ptr noundef nonnull align 8 dereferenceable(32) %6, ptr noundef nonnull align 8 dereferenceable(32) %0)
  store i1 true, ptr %5, align 1
  %7 = load i1, ptr %5, align 1
  br i1 %7, label %9, label %8

8:                                                ; preds = %2
  call void @_ZNSt14_Function_baseD2Ev(ptr noundef nonnull align 8 dereferenceable(32) %0) #12
  br label %9

9:                                                ; preds = %8, %2
  ret void
}