; Function Attrs: mustprogress nofree norecurse nosync nounwind willreturn memory(argmem: readwrite) uwtable
define dso_local void @_ZN3igl32infinite_cost_stopping_conditionERKSt8functionIFviRKN5Eigen6MatrixIdLin1ELin1ELi0ELin1ELin1EEERKNS2_IiLin1ELin1ELi0ELin1ELin1EEES8_RKNS2_IiLin1ELi1ELi0ELin1ELi1EEES8_S8_RdRNS2_IdLi1ELin1ELi1ELi1ELin1EEEEE(ptr dead_on_unwind noalias writable writeonly sret(%"class.std::function.1") align 8 captures(none) initializes((0, 32)) %0, ptr noundef nonnull align 8 dereferenceable(32) %1) local_unnamed_addr #2 personality ptr @__gxx_personality_v0 {
_ZN3igl32infinite_cost_stopping_conditionERKSt8functionIFviRKN5Eigen6MatrixIdLin1ELin1ELi0ELin1ELin1EEERKNS2_IiLin1ELin1ELi0ELin1ELin1EEES8_RKNS2_IiLin1ELi1ELi0ELin1ELi1EEES8_S8_RdRNS2_IdLi1ELin1ELi1ELi1ELin1EEEEERS0_IFbS5_S8_S8_SB_S8_S8_RKSt14priority_queueISt5tupleIJdiiEESt6vectorISL_SaISL_EESt7greaterISL_EESB_S5_iiiiiEE.exit:
  %2 = ptrtoint ptr %1 to i64
  store i64 %2, ptr %0, align 8
  %.sroa.4.0..sroa_idx = getelementptr inbounds nuw i8, ptr %0, i64 8
  store i64 0, ptr %.sroa.4.0..sroa_idx, align 8
  %3 = getelementptr inbounds nuw i8, ptr %0, i64 16
  store ptr @"_ZNSt17_Function_handlerIFbRKN5Eigen6MatrixIdLin1ELin1ELi0ELin1ELin1EEERKNS1_IiLin1ELin1ELi0ELin1ELin1EEES7_RKNS1_IiLin1ELi1ELi0ELin1ELi1EEES7_S7_RKSt14priority_queueISt5tupleIJdiiEESt6vectorISD_SaISD_EESt7greaterISD_EESA_S4_iiiiiEZN3igl32infinite_cost_stopping_conditionERKSt8functionIFviS4_S7_S7_SA_S7_S7_RdRNS1_IdLi1ELin1ELi1ELi1ELin1EEEEERSO_ISM_EE3$_0E10_M_managerERSt9_Any_dataRKS10_St18_Manager_operation", ptr %3, align 8, !tbaa !11
  %4 = getelementptr inbounds nuw i8, ptr %0, i64 24
  store ptr @"_ZNSt17_Function_handlerIFbRKN5Eigen6MatrixIdLin1ELin1ELi0ELin1ELin1EEERKNS1_IiLin1ELin1ELi0ELin1ELin1EEES7_RKNS1_IiLin1ELi1ELi0ELin1ELi1EEES7_S7_RKSt14priority_queueISt5tupleIJdiiEESt6vectorISD_SaISD_EESt7greaterISD_EESA_S4_iiiiiEZN3igl32infinite_cost_stopping_conditionERKSt8functionIFviS4_S7_S7_SA_S7_S7_RdRNS1_IdLi1ELin1ELi1ELi1ELin1EEEEERSO_ISM_EE3$_0E9_M_invokeERKSt9_Any_dataS4_S7_S7_SA_S7_S7_SL_SA_S4_OiS13_S13_S13_S13_", ptr %4, align 8, !tbaa !11
  ret void
}